target datalayout = "e-m:e-p270:32:32-p271:32:32-p272:64:64-i64:64-i128:128-f80:128-n8:16:32:64-S128"
target triple = "x86_64-pc-linux-gnu"

%class.Node = type <{ ptr, ptr, ptr, i32, i32, i32, i32, i32, i32, i32, [4 x i8] }>
%class.VectorSet = type { i32, ptr, i32, ptr }
%class.Phase = type { i32, ptr }
%class.Unique_Node_List = type <{ %class.Node_List.base, [4 x i8], %class.VectorSet, i32, [4 x i8] }>
%class.Node_List.base = type <{ %class.Node_Array, i32 }>
%class.Node_Array = type { ptr, i32, ptr }
%class.PhaseValues = type { %class.PhaseTransform, i8, ptr, ptr, [137 x ptr], [137 x ptr], [20 x ptr] }
%class.PhaseTransform = type { ptr, %class.Phase }
%class.Node_List = type <{ %class.Node_Array, i32, [4 x i8] }>
%class.PhaseIterGVN = type { %class.PhaseGVN, i8, ptr }
%class.PhaseGVN = type { %class.PhaseValues }

; Function Attrs: mustprogress nounwind uwtable
define linkonce_odr hidden void @_ZN10Node_Array3mapEjP4Node(ptr noundef nonnull align 8 dereferenceable(24) %0, i32 noundef %1, ptr noundef %2) #1 comdat align 2 {
  %4 = alloca ptr, align 8
  %5 = alloca i32, align 4
  %6 = alloca ptr, align 8
  store ptr %0, ptr %4, align 8
  store i32 %1, ptr %5, align 4
  store ptr %2, ptr %6, align 8
  %7 = load ptr, ptr %4, align 8
  %8 = load i32, ptr %5, align 4
  %9 = getelementptr inbounds %class.Node_Array, ptr %7, i32 0, i32 1
  %10 = load i32, ptr %9, align 8
  %11 = icmp uge i32 %8, %10
  br i1 %11, label %12, label %14

12:                                               ; preds = %3
  %13 = load i32, ptr %5, align 4
  call void @_ZN10Node_Array4growEj(ptr noundef nonnull align 8 dereferenceable(24) %7, i32 noundef %13)
  br label %14

14:                                               ; preds = %12, %3
  %15 = load ptr, ptr %6, align 8
  %16 = getelementptr inbounds %class.Node_Array, ptr %7, i32 0, i32 2
  %17 = load ptr, ptr %16, align 8
  %18 = load i32, ptr %5, align 4
  %19 = zext i32 %18 to i64
  %20 = getelementptr inbounds ptr, ptr %17, i64 %19
  store ptr %15, ptr %20, align 8
  ret void
}

; Function Attrs: mustprogress nounwind uwtable
define linkonce_odr hidden void @_ZN9Node_List4pushEP4Node(ptr noundef nonnull align 8 dereferenceable(28) %0, ptr noundef %1) #1 comdat align 2 {
  %3 = alloca ptr, align 8
  %4 = alloca ptr, align 8
  store ptr %0, ptr %3, align 8
  store ptr %1, ptr %4, align 8
  %5 = load ptr, ptr %3, align 8
  %6 = getelementptr inbounds %class.Node_List, ptr %5, i32 0, i32 1
  %7 = load i32, ptr %6, align 8
  %8 = add i32 %7, 1
  store i32 %8, ptr %6, align 8
  %9 = load ptr, ptr %4, align 8
  call void @_ZN10Node_Array3mapEjP4Node(ptr noundef nonnull align 8 dereferenceable(24) %5, i32 noundef %7, ptr noundef %9)
  ret void
}

; Function Attrs: mustprogress nounwind uwtable
define linkonce_odr hidden noundef zeroext i1 @_ZN9VectorSet8test_setEj(ptr noundef nonnull align 8 dereferenceable(32) %0, i32 noundef %1) #1 comdat align 2 {
  %3 = alloca ptr, align 8
  %4 = alloca i32, align 4
  %5 = alloca i32, align 4
  %6 = alloca i32, align 4
  %7 = alloca i32, align 4
  store ptr %0, ptr %3, align 8
  store i32 %1, ptr %4, align 4
  %8 = load ptr, ptr %3, align 8
  %9 = load i32, ptr %4, align 4
  %10 = lshr i32 %9, 5
  store i32 %10, ptr %5, align 4
  %11 = load i32, ptr %5, align 4
  %12 = getelementptr inbounds %class.VectorSet, ptr %8, i32 0, i32 0
  %13 = load i32, ptr %12, align 8
  %14 = icmp uge i32 %11, %13
  br i1 %14, label %15, label %17

15:                                               ; preds = %2
  %16 = load i32, ptr %5, align 4
  call void @_ZN9VectorSet4growEj(ptr noundef nonnull align 8 dereferenceable(32) %8, i32 noundef %16)
  br label %17

17:                                               ; preds = %15, %2
  %18 = load i32, ptr %4, align 4
  %19 = and i32 %18, 31
  %20 = shl i32 1, %19
  store i32 %20, ptr %6, align 4
  %21 = getelementptr inbounds %class.VectorSet, ptr %8, i32 0, i32 1
  %22 = load ptr, ptr %21, align 8
  %23 = load i32, ptr %5, align 4
  %24 = zext i32 %23 to i64
  %25 = getelementptr inbounds i32, ptr %22, i64 %24
  %26 = load i32, ptr %25, align 4
  store i32 %26, ptr %7, align 4
  %27 = load i32, ptr %7, align 4
  %28 = load i32, ptr %6, align 4
  %29 = or i32 %27, %28
  %30 = getelementptr inbounds %class.VectorSet, ptr %8, i32 0, i32 1
  %31 = load ptr, ptr %30, align 8
  %32 = load i32, ptr %5, align 4
  %33 = zext i32 %32 to i64
  %34 = getelementptr inbounds i32, ptr %31, i64 %33
  store i32 %29, ptr %34, align 4
  %35 = load i32, ptr %7, align 4
  %36 = load i32, ptr %6, align 4
  %37 = and i32 %35, %36
  %38 = icmp ne i32 %37, 0
  ret i1 %38
}

; Function Attrs: mustprogress nounwind uwtable
define linkonce_odr hidden void @_ZN16Unique_Node_List4pushEP4Node(ptr noundef nonnull align 8 dereferenceable(68) %0, ptr noundef %1) #1 comdat align 2 {
  %3 = alloca ptr, align 8
  %4 = alloca ptr, align 8
  store ptr %0, ptr %3, align 8
  store ptr %1, ptr %4, align 8
  %5 = load ptr, ptr %3, align 8
  %6 = getelementptr inbounds %class.Unique_Node_List, ptr %5, i32 0, i32 2
  %7 = load ptr, ptr %4, align 8
  %8 = getelementptr inbounds %class.Node, ptr %7, i32 0, i32 7
  %9 = load i32, ptr %8, align 8
  %10 = call noundef zeroext i1 @_ZN9VectorSet8test_setEj(ptr noundef nonnull align 8 dereferenceable(32) %6, i32 noundef %9)
  br i1 %10, label %13, label %11

11:                                               ; preds = %2
  %12 = load ptr, ptr %4, align 8
  call void @_ZN9Node_List4pushEP4Node(ptr noundef nonnull align 8 dereferenceable(28) %5, ptr noundef %12)
  br label %13

13:                                               ; preds = %11, %2
  ret void
}

; Function Attrs: mustprogress nounwind uwtable
define hidden noundef ptr @_ZN12PhaseIterGVN32register_new_node_with_optimizerEP4NodeS1_(ptr noundef nonnull align 8 dereferenceable(2416) %0, ptr noundef %1, ptr noundef %2) #1 align 2 {
  %4 = alloca ptr, align 8
  %5 = alloca ptr, align 8
  %6 = alloca ptr, align 8
  store ptr %0, ptr %4, align 8
  store ptr %1, ptr %5, align 8
  store ptr %2, ptr %6, align 8
  %7 = load ptr, ptr %4, align 8
  %8 = load ptr, ptr %5, align 8
  call void @_ZN11PhaseValues15set_type_bottomEPK4Node(ptr noundef nonnull align 8 dereferenceable(2400) %7, ptr noundef %8)
  %9 = getelementptr inbounds %class.PhaseIterGVN, ptr %7, i32 0, i32 2
  %10 = load ptr, ptr %9, align 8
  %11 = load ptr, ptr %5, align 8
  call void @_ZN16Unique_Node_List4pushEP4Node(ptr noundef nonnull align 8 dereferenceable(68) %10, ptr noundef %11)
  %12 = load ptr, ptr %6, align 8
  %13 = icmp ne ptr %12, null
  br i1 %13, label %14, label %21

14:                                               ; preds = %3
  %15 = getelementptr inbounds i8, ptr %7, i64 8
  %16 = getelementptr inbounds %class.Phase, ptr %15, i32 0, i32 1
  %17 = load ptr, ptr %16, align 8
  %18 = load ptr, ptr %5, align 8
  %19 = load ptr, ptr %6, align 8
  %20 = call noundef zeroext i1 @_ZN7Compile18copy_node_notes_toEP4NodeS1_(ptr noundef nonnull align 8 dereferenceable(2316) %17, ptr noundef %18, ptr noundef %19)
  br label %21

21:                                               ; preds = %14, %3
  %22 = load ptr, ptr %5, align 8
  ret ptr %22
}