; Function Attrs: mustprogress nounwind uwtable
define hidden noundef ptr @_ZN12PhaseIterGVN32register_new_node_with_optimizerEP4NodeS1_(ptr noundef nonnull align 8 dereferenceable(2416) %0, ptr noundef returned %1, ptr noundef %2) local_unnamed_addr #0 align 2 {
  tail call void @_ZN11PhaseValues15set_type_bottomEPK4Node(ptr noundef nonnull align 8 dereferenceable(2400) %0, ptr noundef %1)
  %4 = getelementptr inbounds i8, ptr %0, i64 2408
  %5 = load ptr, ptr %4, align 8
  %6 = getelementptr inbounds i8, ptr %5, i64 32
  %7 = getelementptr inbounds i8, ptr %1, i64 40
  %8 = load i32, ptr %7, align 8
  %9 = lshr i32 %8, 5
  %10 = load i32, ptr %6, align 8
  %.not.i.i = icmp ult i32 %9, %10
  br i1 %.not.i.i, label %_ZN9VectorSet8test_setEj.exit.i, label %11

11:                                               ; preds = %3
  tail call void @_ZN9VectorSet4growEj(ptr noundef nonnull align 8 dereferenceable(32) %6, i32 noundef %9) #16
  br label %_ZN9VectorSet8test_setEj.exit.i

_ZN9VectorSet8test_setEj.exit.i:                  ; preds = %11, %3
  %12 = and i32 %8, 31
  %13 = shl nuw i32 1, %12
  %14 = getelementptr inbounds i8, ptr %5, i64 40
  %15 = load ptr, ptr %14, align 8
  %16 = zext nneg i32 %9 to i64
  %17 = getelementptr inbounds i32, ptr %15, i64 %16
  %18 = load i32, ptr %17, align 4
  %19 = or i32 %18, %13
  store i32 %19, ptr %17, align 4
  %20 = and i32 %18, %13
  %.not.i = icmp eq i32 %20, 0
  br i1 %.not.i, label %21, label %_ZN16Unique_Node_List4pushEP4Node.exit

21:                                               ; preds = %_ZN9VectorSet8test_setEj.exit.i
  %22 = getelementptr inbounds i8, ptr %5, i64 24
  %23 = load i32, ptr %22, align 8
  %24 = add i32 %23, 1
  store i32 %24, ptr %22, align 8
  %25 = getelementptr inbounds i8, ptr %5, i64 8
  %26 = load i32, ptr %25, align 8
  %.not.i.i.i = icmp ugt i32 %26, %23
  br i1 %.not.i.i.i, label %_ZN9Node_List4pushEP4Node.exit.i, label %27

27:                                               ; preds = %21
  tail call void @_ZN10Node_Array4growEj(ptr noundef nonnull align 8 dereferenceable(24) %5, i32 noundef %23) #16
  br label %_ZN9Node_List4pushEP4Node.exit.i

_ZN9Node_List4pushEP4Node.exit.i:                 ; preds = %27, %21
  %28 = getelementptr inbounds i8, ptr %5, i64 16
  %29 = load ptr, ptr %28, align 8
  %30 = zext i32 %23 to i64
  %31 = getelementptr inbounds ptr, ptr %29, i64 %30
  store ptr %1, ptr %31, align 8
  br label %_ZN16Unique_Node_List4pushEP4Node.exit

_ZN16Unique_Node_List4pushEP4Node.exit:           ; preds = %_ZN9VectorSet8test_setEj.exit.i, %_ZN9Node_List4pushEP4Node.exit.i
  %.not = icmp eq ptr %2, null
  br i1 %.not, label %36, label %32

32:                                               ; preds = %_ZN16Unique_Node_List4pushEP4Node.exit
  %33 = getelementptr inbounds i8, ptr %0, i64 16
  %34 = load ptr, ptr %33, align 8
  %35 = tail call noundef zeroext i1 @_ZN7Compile18copy_node_notes_toEP4NodeS1_(ptr noundef nonnull align 8 dereferenceable(2316) %34, ptr noundef nonnull %1, ptr noundef nonnull %2) #16
  br label %36

36:                                               ; preds = %32, %_ZN16Unique_Node_List4pushEP4Node.exit
  ret ptr %1
}